target datalayout = "e-m:e-p270:32:32-p271:32:32-p272:64:64-i64:64-i128:128-f80:128-n8:16:32:64-S128"
target triple = "x86_64-pc-linux-gnu"

%struct.lexbor_shs_hash_t = type { i32, i32, i32 }
%struct.lxb_encoding_encode_t = type { ptr, ptr, i64, i64, ptr, i64, i32 }

@lxb_encoding_multi_hash_gb18030 = external constant [23941 x %struct.lexbor_shs_hash_t], align 16

; Function Attrs: nounwind uwtable
define internal ptr @lexbor_shs_hash_get_static(ptr noundef %0, i64 noundef %1, i32 noundef %2) #0 {
  %4 = alloca ptr, align 8
  %5 = alloca ptr, align 8
  %6 = alloca i64, align 8
  %7 = alloca i32, align 4
  %8 = alloca ptr, align 8
  store ptr %0, ptr %5, align 8
  store i64 %1, ptr %6, align 8
  store i32 %2, ptr %7, align 4
  %9 = load ptr, ptr %5, align 8
  %10 = load i32, ptr %7, align 4
  %11 = zext i32 %10 to i64
  %12 = load i64, ptr %6, align 8
  %13 = urem i64 %11, %12
  %14 = add i64 %13, 1
  %15 = getelementptr inbounds %struct.lexbor_shs_hash_t, ptr %9, i64 %14
  store ptr %15, ptr %8, align 8
  br label %16

16:                                               ; preds = %31, %3
  %17 = load ptr, ptr %8, align 8
  %18 = getelementptr inbounds %struct.lexbor_shs_hash_t, ptr %17, i32 0, i32 0
  %19 = load i32, ptr %18, align 4
  %20 = load i32, ptr %7, align 4
  %21 = icmp eq i32 %19, %20
  br i1 %21, label %22, label %24

22:                                               ; preds = %16
  %23 = load ptr, ptr %8, align 8
  store ptr %23, ptr %4, align 8
  br label %36

24:                                               ; preds = %16
  %25 = load ptr, ptr %5, align 8
  %26 = load ptr, ptr %8, align 8
  %27 = getelementptr inbounds %struct.lexbor_shs_hash_t, ptr %26, i32 0, i32 2
  %28 = load i32, ptr %27, align 4
  %29 = zext i32 %28 to i64
  %30 = getelementptr inbounds %struct.lexbor_shs_hash_t, ptr %25, i64 %29
  store ptr %30, ptr %8, align 8
  br label %31

31:                                               ; preds = %24
  %32 = load ptr, ptr %8, align 8
  %33 = load ptr, ptr %5, align 8
  %34 = icmp ne ptr %32, %33
  br i1 %34, label %16, label %35

35:                                               ; preds = %31
  store ptr null, ptr %4, align 8
  br label %36

36:                                               ; preds = %35, %22
  %37 = load ptr, ptr %4, align 8
  ret ptr %37
}

; Function Attrs: nounwind uwtable
define hidden i32 @lxb_encoding_encode_gbk(ptr noundef %0, ptr noundef %1, ptr noundef %2) #0 {
  %4 = alloca i32, align 4
  %5 = alloca ptr, align 8
  %6 = alloca ptr, align 8
  %7 = alloca ptr, align 8
  %8 = alloca i32, align 4
  %9 = alloca ptr, align 8
  store ptr %0, ptr %5, align 8
  store ptr %1, ptr %6, align 8
  store ptr %2, ptr %7, align 8
  br label %10

10:                                               ; preds = %231, %3
  %11 = load ptr, ptr %6, align 8
  %12 = load ptr, ptr %11, align 8
  %13 = load ptr, ptr %7, align 8
  %14 = icmp ult ptr %12, %13
  br i1 %14, label %15, label %235

15:                                               ; preds = %10
  %16 = load ptr, ptr %6, align 8
  %17 = load ptr, ptr %16, align 8
  %18 = load i32, ptr %17, align 4
  store i32 %18, ptr %8, align 4
  %19 = load i32, ptr %8, align 4
  %20 = icmp ult i32 %19, 128
  br i1 %20, label %21, label %43

21:                                               ; preds = %15
  br label %22

22:                                               ; preds = %21
  %23 = load ptr, ptr %5, align 8
  %24 = getelementptr inbounds %struct.lxb_encoding_encode_t, ptr %23, i32 0, i32 3
  %25 = load i64, ptr %24, align 8
  %26 = load ptr, ptr %5, align 8
  %27 = getelementptr inbounds %struct.lxb_encoding_encode_t, ptr %26, i32 0, i32 2
  %28 = load i64, ptr %27, align 8
  %29 = icmp eq i64 %25, %28
  br i1 %29, label %30, label %31

30:                                               ; preds = %22
  store i32 15, ptr %4, align 4
  br label %236

31:                                               ; preds = %22
  %32 = load i32, ptr %8, align 4
  %33 = trunc i32 %32 to i8
  %34 = load ptr, ptr %5, align 8
  %35 = getelementptr inbounds %struct.lxb_encoding_encode_t, ptr %34, i32 0, i32 1
  %36 = load ptr, ptr %35, align 8
  %37 = load ptr, ptr %5, align 8
  %38 = getelementptr inbounds %struct.lxb_encoding_encode_t, ptr %37, i32 0, i32 3
  %39 = load i64, ptr %38, align 8
  %40 = add i64 %39, 1
  store i64 %40, ptr %38, align 8
  %41 = getelementptr inbounds i8, ptr %36, i64 %39
  store i8 %33, ptr %41, align 1
  br label %42

42:                                               ; preds = %31
  br label %231

43:                                               ; preds = %15
  %44 = load i32, ptr %8, align 4
  %45 = icmp eq i32 %44, 58853
  br i1 %45, label %46, label %88

46:                                               ; preds = %43
  br label %47

47:                                               ; preds = %46
  %48 = load ptr, ptr %5, align 8
  %49 = getelementptr inbounds %struct.lxb_encoding_encode_t, ptr %48, i32 0, i32 4
  %50 = load ptr, ptr %49, align 8
  %51 = icmp eq ptr %50, null
  br i1 %51, label %52, label %53

52:                                               ; preds = %47
  store i32 1, ptr %4, align 4
  br label %236

53:                                               ; preds = %47
  %54 = load ptr, ptr %5, align 8
  %55 = getelementptr inbounds %struct.lxb_encoding_encode_t, ptr %54, i32 0, i32 3
  %56 = load i64, ptr %55, align 8
  %57 = load ptr, ptr %5, align 8
  %58 = getelementptr inbounds %struct.lxb_encoding_encode_t, ptr %57, i32 0, i32 5
  %59 = load i64, ptr %58, align 8
  %60 = add i64 %56, %59
  %61 = load ptr, ptr %5, align 8
  %62 = getelementptr inbounds %struct.lxb_encoding_encode_t, ptr %61, i32 0, i32 2
  %63 = load i64, ptr %62, align 8
  %64 = icmp ugt i64 %60, %63
  br i1 %64, label %65, label %66

65:                                               ; preds = %53
  store i32 15, ptr %4, align 4
  br label %236

66:                                               ; preds = %53
  %67 = load ptr, ptr %5, align 8
  %68 = getelementptr inbounds %struct.lxb_encoding_encode_t, ptr %67, i32 0, i32 1
  %69 = load ptr, ptr %68, align 8
  %70 = load ptr, ptr %5, align 8
  %71 = getelementptr inbounds %struct.lxb_encoding_encode_t, ptr %70, i32 0, i32 3
  %72 = load i64, ptr %71, align 8
  %73 = getelementptr inbounds i8, ptr %69, i64 %72
  %74 = load ptr, ptr %5, align 8
  %75 = getelementptr inbounds %struct.lxb_encoding_encode_t, ptr %74, i32 0, i32 4
  %76 = load ptr, ptr %75, align 8
  %77 = load ptr, ptr %5, align 8
  %78 = getelementptr inbounds %struct.lxb_encoding_encode_t, ptr %77, i32 0, i32 5
  %79 = load i64, ptr %78, align 8
  call void @llvm.memcpy.p0.p0.i64(ptr align 1 %73, ptr align 1 %76, i64 %79, i1 false)
  %80 = load ptr, ptr %5, align 8
  %81 = getelementptr inbounds %struct.lxb_encoding_encode_t, ptr %80, i32 0, i32 5
  %82 = load i64, ptr %81, align 8
  %83 = load ptr, ptr %5, align 8
  %84 = getelementptr inbounds %struct.lxb_encoding_encode_t, ptr %83, i32 0, i32 3
  %85 = load i64, ptr %84, align 8
  %86 = add i64 %85, %82
  store i64 %86, ptr %84, align 8
  br label %87

87:                                               ; preds = %66
  br label %231

88:                                               ; preds = %43
  %89 = load i32, ptr %8, align 4
  %90 = icmp eq i32 %89, 8364
  br i1 %90, label %91, label %111

91:                                               ; preds = %88
  br label %92

92:                                               ; preds = %91
  %93 = load ptr, ptr %5, align 8
  %94 = getelementptr inbounds %struct.lxb_encoding_encode_t, ptr %93, i32 0, i32 3
  %95 = load i64, ptr %94, align 8
  %96 = load ptr, ptr %5, align 8
  %97 = getelementptr inbounds %struct.lxb_encoding_encode_t, ptr %96, i32 0, i32 2
  %98 = load i64, ptr %97, align 8
  %99 = icmp eq i64 %95, %98
  br i1 %99, label %100, label %101

100:                                              ; preds = %92
  store i32 15, ptr %4, align 4
  br label %236

101:                                              ; preds = %92
  %102 = load ptr, ptr %5, align 8
  %103 = getelementptr inbounds %struct.lxb_encoding_encode_t, ptr %102, i32 0, i32 1
  %104 = load ptr, ptr %103, align 8
  %105 = load ptr, ptr %5, align 8
  %106 = getelementptr inbounds %struct.lxb_encoding_encode_t, ptr %105, i32 0, i32 3
  %107 = load i64, ptr %106, align 8
  %108 = add i64 %107, 1
  store i64 %108, ptr %106, align 8
  %109 = getelementptr inbounds i8, ptr %104, i64 %107
  store i8 -128, ptr %109, align 1
  br label %110

110:                                              ; preds = %101
  br label %231

111:                                              ; preds = %88
  %112 = load i32, ptr %8, align 4
  %113 = call ptr @lexbor_shs_hash_get_static(ptr noundef @lxb_encoding_multi_hash_gb18030, i64 noundef 19950, i32 noundef %112)
  store ptr %113, ptr %9, align 8
  %114 = load ptr, ptr %9, align 8
  %115 = icmp eq ptr %114, null
  br i1 %115, label %116, label %158

116:                                              ; preds = %111
  br label %117

117:                                              ; preds = %116
  %118 = load ptr, ptr %5, align 8
  %119 = getelementptr inbounds %struct.lxb_encoding_encode_t, ptr %118, i32 0, i32 4
  %120 = load ptr, ptr %119, align 8
  %121 = icmp eq ptr %120, null
  br i1 %121, label %122, label %123

122:                                              ; preds = %117
  store i32 1, ptr %4, align 4
  br label %236

123:                                              ; preds = %117
  %124 = load ptr, ptr %5, align 8
  %125 = getelementptr inbounds %struct.lxb_encoding_encode_t, ptr %124, i32 0, i32 3
  %126 = load i64, ptr %125, align 8
  %127 = load ptr, ptr %5, align 8
  %128 = getelementptr inbounds %struct.lxb_encoding_encode_t, ptr %127, i32 0, i32 5
  %129 = load i64, ptr %128, align 8
  %130 = add i64 %126, %129
  %131 = load ptr, ptr %5, align 8
  %132 = getelementptr inbounds %struct.lxb_encoding_encode_t, ptr %131, i32 0, i32 2
  %133 = load i64, ptr %132, align 8
  %134 = icmp ugt i64 %130, %133
  br i1 %134, label %135, label %136

135:                                              ; preds = %123
  store i32 15, ptr %4, align 4
  br label %236

136:                                              ; preds = %123
  %137 = load ptr, ptr %5, align 8
  %138 = getelementptr inbounds %struct.lxb_encoding_encode_t, ptr %137, i32 0, i32 1
  %139 = load ptr, ptr %138, align 8
  %140 = load ptr, ptr %5, align 8
  %141 = getelementptr inbounds %struct.lxb_encoding_encode_t, ptr %140, i32 0, i32 3
  %142 = load i64, ptr %141, align 8
  %143 = getelementptr inbounds i8, ptr %139, i64 %142
  %144 = load ptr, ptr %5, align 8
  %145 = getelementptr inbounds %struct.lxb_encoding_encode_t, ptr %144, i32 0, i32 4
  %146 = load ptr, ptr %145, align 8
  %147 = load ptr, ptr %5, align 8
  %148 = getelementptr inbounds %struct.lxb_encoding_encode_t, ptr %147, i32 0, i32 5
  %149 = load i64, ptr %148, align 8
  call void @llvm.memcpy.p0.p0.i64(ptr align 1 %143, ptr align 1 %146, i64 %149, i1 false)
  %150 = load ptr, ptr %5, align 8
  %151 = getelementptr inbounds %struct.lxb_encoding_encode_t, ptr %150, i32 0, i32 5
  %152 = load i64, ptr %151, align 8
  %153 = load ptr, ptr %5, align 8
  %154 = getelementptr inbounds %struct.lxb_encoding_encode_t, ptr %153, i32 0, i32 3
  %155 = load i64, ptr %154, align 8
  %156 = add i64 %155, %152
  store i64 %156, ptr %154, align 8
  br label %157

157:                                              ; preds = %136
  br label %231

158:                                              ; preds = %111
  %159 = load ptr, ptr %5, align 8
  %160 = getelementptr inbounds %struct.lxb_encoding_encode_t, ptr %159, i32 0, i32 3
  %161 = load i64, ptr %160, align 8
  %162 = add i64 %161, 2
  %163 = load ptr, ptr %5, align 8
  %164 = getelementptr inbounds %struct.lxb_encoding_encode_t, ptr %163, i32 0, i32 2
  %165 = load i64, ptr %164, align 8
  %166 = icmp ugt i64 %162, %165
  br i1 %166, label %167, label %168

167:                                              ; preds = %158
  store i32 15, ptr %4, align 4
  br label %236

168:                                              ; preds = %158
  %169 = load ptr, ptr %9, align 8
  %170 = getelementptr inbounds %struct.lexbor_shs_hash_t, ptr %169, i32 0, i32 1
  %171 = load i32, ptr %170, align 4
  %172 = zext i32 %171 to i64
  %173 = trunc i64 %172 to i8
  %174 = zext i8 %173 to i32
  %175 = sdiv i32 %174, 190
  %176 = add nsw i32 %175, 129
  %177 = trunc i32 %176 to i8
  %178 = load ptr, ptr %5, align 8
  %179 = getelementptr inbounds %struct.lxb_encoding_encode_t, ptr %178, i32 0, i32 1
  %180 = load ptr, ptr %179, align 8
  %181 = load ptr, ptr %5, align 8
  %182 = getelementptr inbounds %struct.lxb_encoding_encode_t, ptr %181, i32 0, i32 3
  %183 = load i64, ptr %182, align 8
  %184 = add i64 %183, 1
  store i64 %184, ptr %182, align 8
  %185 = getelementptr inbounds i8, ptr %180, i64 %183
  store i8 %177, ptr %185, align 1
  %186 = load ptr, ptr %9, align 8
  %187 = getelementptr inbounds %struct.lexbor_shs_hash_t, ptr %186, i32 0, i32 1
  %188 = load i32, ptr %187, align 4
  %189 = zext i32 %188 to i64
  %190 = trunc i64 %189 to i8
  %191 = zext i8 %190 to i32
  %192 = srem i32 %191, 190
  %193 = icmp slt i32 %192, 63
  br i1 %193, label %194, label %212

194:                                              ; preds = %168
  %195 = load ptr, ptr %9, align 8
  %196 = getelementptr inbounds %struct.lexbor_shs_hash_t, ptr %195, i32 0, i32 1
  %197 = load i32, ptr %196, align 4
  %198 = zext i32 %197 to i64
  %199 = trunc i64 %198 to i8
  %200 = zext i8 %199 to i32
  %201 = srem i32 %200, 190
  %202 = add nsw i32 %201, 64
  %203 = trunc i32 %202 to i8
  %204 = load ptr, ptr %5, align 8
  %205 = getelementptr inbounds %struct.lxb_encoding_encode_t, ptr %204, i32 0, i32 1
  %206 = load ptr, ptr %205, align 8
  %207 = load ptr, ptr %5, align 8
  %208 = getelementptr inbounds %struct.lxb_encoding_encode_t, ptr %207, i32 0, i32 3
  %209 = load i64, ptr %208, align 8
  %210 = add i64 %209, 1
  store i64 %210, ptr %208, align 8
  %211 = getelementptr inbounds i8, ptr %206, i64 %209
  store i8 %203, ptr %211, align 1
  br label %230

212:                                              ; preds = %168
  %213 = load ptr, ptr %9, align 8
  %214 = getelementptr inbounds %struct.lexbor_shs_hash_t, ptr %213, i32 0, i32 1
  %215 = load i32, ptr %214, align 4
  %216 = zext i32 %215 to i64
  %217 = trunc i64 %216 to i8
  %218 = zext i8 %217 to i32
  %219 = srem i32 %218, 190
  %220 = add nsw i32 %219, 65
  %221 = trunc i32 %220 to i8
  %222 = load ptr, ptr %5, align 8
  %223 = getelementptr inbounds %struct.lxb_encoding_encode_t, ptr %222, i32 0, i32 1
  %224 = load ptr, ptr %223, align 8
  %225 = load ptr, ptr %5, align 8
  %226 = getelementptr inbounds %struct.lxb_encoding_encode_t, ptr %225, i32 0, i32 3
  %227 = load i64, ptr %226, align 8
  %228 = add i64 %227, 1
  store i64 %228, ptr %226, align 8
  %229 = getelementptr inbounds i8, ptr %224, i64 %227
  store i8 %221, ptr %229, align 1
  br label %230

230:                                              ; preds = %212, %194
  br label %231

231:                                              ; preds = %230, %157, %110, %87, %42
  %232 = load ptr, ptr %6, align 8
  %233 = load ptr, ptr %232, align 8
  %234 = getelementptr inbounds i32, ptr %233, i32 1
  store ptr %234, ptr %232, align 8
  br label %10

235:                                              ; preds = %10
  store i32 0, ptr %4, align 4
  br label %236

236:                                              ; preds = %235, %167, %135, %122, %100, %65, %52, %30
  %237 = load i32, ptr %4, align 4
  ret i32 %237
}