; Function Attrs: nofree norecurse nosync nounwind memory(readwrite, inaccessiblemem: none) uwtable
define hidden noundef i32 @lxb_encoding_encode_gbk(ptr nocapture noundef %0, ptr nocapture noundef %1, ptr noundef readnone %2) local_unnamed_addr #0 {
  %4 = getelementptr inbounds i8, ptr %0, i64 24
  %5 = getelementptr inbounds i8, ptr %0, i64 32
  %6 = load ptr, ptr %1, align 8
  %7 = icmp ult ptr %6, %2
  br i1 %7, label %.lr.ph, label %._crit_edge

.lr.ph:                                           ; preds = %3
  %8 = getelementptr inbounds i8, ptr %0, i64 16
  %9 = getelementptr inbounds i8, ptr %0, i64 8
  %10 = getelementptr inbounds i8, ptr %0, i64 40
  br label %11

11:                                               ; preds = %.lr.ph, %97
  %12 = phi ptr [ %6, %.lr.ph ], [ %99, %97 ]
  %13 = load i32, ptr %12, align 4
  %14 = icmp ult i32 %13, 128
  br i1 %14, label %15, label %24

15:                                               ; preds = %11
  %16 = load i64, ptr %4, align 8
  %17 = load i64, ptr %8, align 8
  %18 = icmp eq i64 %16, %17
  br i1 %18, label %._crit_edge, label %19

19:                                               ; preds = %15
  %20 = trunc i32 %13 to i8
  %21 = load ptr, ptr %9, align 8
  %22 = add i64 %16, 1
  store i64 %22, ptr %4, align 8
  %23 = getelementptr inbounds i8, ptr %21, i64 %16
  store i8 %20, ptr %23, align 1
  br label %97

24:                                               ; preds = %11
  switch i32 %13, label %48 [
    i32 58853, label %25
    i32 8364, label %40
  ]

25:                                               ; preds = %24
  %26 = load ptr, ptr %5, align 8
  %27 = icmp eq ptr %26, null
  br i1 %27, label %._crit_edge, label %28

28:                                               ; preds = %25
  %29 = load i64, ptr %4, align 8
  %30 = load i64, ptr %10, align 8
  %31 = add i64 %30, %29
  %32 = load i64, ptr %8, align 8
  %33 = icmp ugt i64 %31, %32
  br i1 %33, label %._crit_edge, label %34

34:                                               ; preds = %28
  %35 = load ptr, ptr %9, align 8
  %36 = getelementptr inbounds i8, ptr %35, i64 %29
  tail call void @llvm.memcpy.p0.p0.i64(ptr align 1 %36, ptr nonnull align 1 %26, i64 %30, i1 false)
  %37 = load i64, ptr %10, align 8
  %38 = load i64, ptr %4, align 8
  %39 = add i64 %38, %37
  store i64 %39, ptr %4, align 8
  br label %97

40:                                               ; preds = %24
  %41 = load i64, ptr %4, align 8
  %42 = load i64, ptr %8, align 8
  %43 = icmp eq i64 %41, %42
  br i1 %43, label %._crit_edge, label %44

44:                                               ; preds = %40
  %45 = load ptr, ptr %9, align 8
  %46 = add i64 %41, 1
  store i64 %46, ptr %4, align 8
  %47 = getelementptr inbounds i8, ptr %45, i64 %41
  store i8 -128, ptr %47, align 1
  br label %97

48:                                               ; preds = %24
  %49 = urem i32 %13, 19950
  %.zext = zext nneg i32 %49 to i64
  %gep = getelementptr %struct.lexbor_shs_hash_t, ptr getelementptr inbounds ([23941 x %struct.lexbor_shs_hash_t], ptr @lxb_encoding_multi_hash_gb18030, i64 0, i64 1, i32 0), i64 %.zext
  br label %50

50:                                               ; preds = %53, %48
  %.0.i = phi ptr [ %gep, %48 ], [ %57, %53 ]
  %51 = load i32, ptr %.0.i, align 4
  %52 = icmp eq i32 %51, %13
  br i1 %52, label %lexbor_shs_hash_get_static.exit, label %53

53:                                               ; preds = %50
  %54 = getelementptr inbounds i8, ptr %.0.i, i64 8
  %55 = load i32, ptr %54, align 4
  %56 = zext i32 %55 to i64
  %57 = getelementptr inbounds %struct.lexbor_shs_hash_t, ptr @lxb_encoding_multi_hash_gb18030, i64 %56
  %.not.i = icmp eq i32 %55, 0
  br i1 %.not.i, label %58, label %50

58:                                               ; preds = %53
  %59 = load ptr, ptr %5, align 8
  %60 = icmp eq ptr %59, null
  br i1 %60, label %._crit_edge, label %61

61:                                               ; preds = %58
  %62 = load i64, ptr %4, align 8
  %63 = load i64, ptr %10, align 8
  %64 = add i64 %63, %62
  %65 = load i64, ptr %8, align 8
  %66 = icmp ugt i64 %64, %65
  br i1 %66, label %._crit_edge, label %67

67:                                               ; preds = %61
  %68 = load ptr, ptr %9, align 8
  %69 = getelementptr inbounds i8, ptr %68, i64 %62
  tail call void @llvm.memcpy.p0.p0.i64(ptr align 1 %69, ptr nonnull align 1 %59, i64 %63, i1 false)
  %70 = load i64, ptr %10, align 8
  %71 = load i64, ptr %4, align 8
  %72 = add i64 %71, %70
  store i64 %72, ptr %4, align 8
  br label %97

lexbor_shs_hash_get_static.exit:                  ; preds = %50
  %73 = load i64, ptr %4, align 8
  %74 = add i64 %73, 2
  %75 = load i64, ptr %8, align 8
  %76 = icmp ugt i64 %74, %75
  br i1 %76, label %._crit_edge, label %77

77:                                               ; preds = %lexbor_shs_hash_get_static.exit
  %78 = getelementptr inbounds i8, ptr %.0.i, i64 4
  %79 = load i32, ptr %78, align 4
  %.fr = freeze i32 %79
  %80 = and i32 %.fr, 254
  %.cmp = icmp ugt i32 %80, 189
  %81 = select i1 %.cmp, i8 -126, i8 -127
  %82 = load ptr, ptr %9, align 8
  %83 = add i64 %73, 1
  store i64 %83, ptr %4, align 8
  %84 = getelementptr inbounds i8, ptr %82, i64 %73
  store i8 %81, ptr %84, align 1
  %85 = and i32 %.fr, 255
  %.urem = add nsw i32 %85, -190
  %.cmp60 = icmp ult i32 %85, 190
  %86 = select i1 %.cmp60, i32 %85, i32 %.urem
  %87 = icmp ult i32 %86, 63
  %88 = trunc i32 %86 to i8
  %89 = load ptr, ptr %9, align 8
  %90 = load i64, ptr %4, align 8
  %91 = add i64 %90, 1
  store i64 %91, ptr %4, align 8
  %92 = getelementptr inbounds i8, ptr %89, i64 %90
  br i1 %87, label %93, label %95

93:                                               ; preds = %77
  %94 = or disjoint i8 %88, 64
  store i8 %94, ptr %92, align 1
  br label %97

95:                                               ; preds = %77
  %96 = add nuw i8 %88, 65
  store i8 %96, ptr %92, align 1
  br label %97

97:                                               ; preds = %93, %95, %67, %44, %34, %19
  %98 = load ptr, ptr %1, align 8
  %99 = getelementptr inbounds i8, ptr %98, i64 4
  store ptr %99, ptr %1, align 8
  %100 = icmp ult ptr %99, %2
  br i1 %100, label %11, label %._crit_edge

._crit_edge:                                      ; preds = %15, %25, %28, %40, %58, %61, %lexbor_shs_hash_get_static.exit, %97, %3
  %.0 = phi i32 [ 0, %3 ], [ 0, %97 ], [ 15, %lexbor_shs_hash_get_static.exit ], [ 15, %61 ], [ 1, %58 ], [ 15, %40 ], [ 15, %28 ], [ 1, %25 ], [ 15, %15 ]
  ret i32 %.0
}